; Function Attrs: mustprogress uwtable
define internal noundef nonnull ptr @_ZN7testing12_GLOBAL__N_124ParameterizedTestFactoryIN11opencv_test12_GLOBAL__N_174Path_Win_Deriv_Border_Reuse_OpticalFlowPyrLK_pyr_OpticalFlowPyrLK_pyr_TestEE10CreateTestEv(ptr noundef nonnull align 8 dereferenceable(56) %0) unnamed_addr #4 align 2 personality ptr @__gxx_personality_v0 {
  %2 = getelementptr inbounds nuw i8, ptr %0, i64 8
  store ptr %2, ptr @_ZN7testing8internal12g_parameter_E, align 8, !tbaa !724
  %3 = tail call noalias noundef nonnull dereferenceable(264) ptr @_Znwm(i64 noundef 264) #32
  invoke void @_ZN4perf8TestBaseC2Ev(ptr noundef nonnull align 8 dereferenceable(257) %3)
          to label %4 unwind label %7

4:                                                ; preds = %1
  %5 = getelementptr inbounds nuw i8, ptr %3, i64 248
  store ptr getelementptr inbounds nuw inrange(-16, 64) (i8, ptr @_ZTVN11opencv_test12_GLOBAL__N_174Path_Win_Deriv_Border_Reuse_OpticalFlowPyrLK_pyr_OpticalFlowPyrLK_pyr_TestE, i64 16), ptr %3, align 8, !tbaa !12
  store ptr getelementptr inbounds nuw inrange(-16, 16) (i8, ptr @_ZTVN11opencv_test12_GLOBAL__N_174Path_Win_Deriv_Border_Reuse_OpticalFlowPyrLK_pyr_OpticalFlowPyrLK_pyr_TestE, i64 96), ptr %5, align 8, !tbaa !12
  %6 = getelementptr inbounds nuw i8, ptr %3, i64 256
  store i8 0, ptr %6, align 8, !tbaa !726
  ret ptr %3

7:                                                ; preds = %1
  %8 = landingpad { ptr, i32 }
          cleanup
  tail call void @_ZdlPv(ptr noundef nonnull %3) #29
  resume { ptr, i32 } %8
}